target datalayout = "e-m:e-p270:32:32-p271:32:32-p272:64:64-i64:64-i128:128-f80:128-n8:16:32:64-S128"
target triple = "x86_64-pc-linux-gnu"

; Function Attrs: nounwind uwtable
define internal void @filter_complex_high(ptr noundef %0, ptr noundef %1, ptr noundef %2, ptr noundef %3, i32 noundef %4) #2 {
  %6 = alloca ptr, align 8
  %7 = alloca ptr, align 8
  %8 = alloca ptr, align 8
  %9 = alloca ptr, align 8
  %10 = alloca i32, align 4
  %11 = alloca i32, align 4
  store ptr %0, ptr %6, align 8, !tbaa !66
  store ptr %1, ptr %7, align 8, !tbaa !99
  store ptr %2, ptr %8, align 8, !tbaa !99
  store ptr %3, ptr %9, align 8, !tbaa !100
  store i32 %4, ptr %10, align 4, !tbaa !24
  call void @llvm.lifetime.start.p0(i64 4, ptr %11) #10
  store i32 0, ptr %11, align 4, !tbaa !24
  br label %12

12:                                               ; preds = %158, %5
  %13 = load i32, ptr %11, align 4, !tbaa !24
  %14 = load i32, ptr %10, align 4, !tbaa !24
  %15 = icmp slt i32 %13, %14
  br i1 %15, label %16, label %161

16:                                               ; preds = %12
  %17 = load ptr, ptr %7, align 8, !tbaa !99
  %18 = getelementptr inbounds ptr, ptr %17, i64 0
  %19 = load ptr, ptr %18, align 8, !tbaa !88
  %20 = getelementptr inbounds nuw i8, ptr %19, i32 1
  store ptr %20, ptr %18, align 8, !tbaa !88
  %21 = load i8, ptr %19, align 1, !tbaa !91
  %22 = zext i8 %21 to i32
  %23 = load ptr, ptr %9, align 8, !tbaa !100
  %24 = getelementptr inbounds i16, ptr %23, i64 0
  %25 = load i16, ptr %24, align 2, !tbaa !102
  %26 = sext i16 %25 to i32
  %27 = mul nsw i32 %22, %26
  %28 = load ptr, ptr %6, align 8, !tbaa !66
  %29 = load i32, ptr %28, align 4, !tbaa !24
  %30 = add nsw i32 %29, %27
  store i32 %30, ptr %28, align 4, !tbaa !24
  %31 = load ptr, ptr %8, align 8, !tbaa !99
  %32 = getelementptr inbounds ptr, ptr %31, i64 0
  %33 = load ptr, ptr %32, align 8, !tbaa !88
  %34 = getelementptr inbounds nuw i8, ptr %33, i32 1
  store ptr %34, ptr %32, align 8, !tbaa !88
  %35 = load i8, ptr %33, align 1, !tbaa !91
  %36 = zext i8 %35 to i32
  %37 = load ptr, ptr %9, align 8, !tbaa !100
  %38 = getelementptr inbounds i16, ptr %37, i64 0
  %39 = load i16, ptr %38, align 2, !tbaa !102
  %40 = sext i16 %39 to i32
  %41 = mul nsw i32 %36, %40
  %42 = load ptr, ptr %6, align 8, !tbaa !66
  %43 = load i32, ptr %42, align 4, !tbaa !24
  %44 = add nsw i32 %43, %41
  store i32 %44, ptr %42, align 4, !tbaa !24
  %45 = load ptr, ptr %7, align 8, !tbaa !99
  %46 = getelementptr inbounds ptr, ptr %45, i64 1
  %47 = load ptr, ptr %46, align 8, !tbaa !88
  %48 = getelementptr inbounds nuw i8, ptr %47, i32 1
  store ptr %48, ptr %46, align 8, !tbaa !88
  %49 = load i8, ptr %47, align 1, !tbaa !91
  %50 = zext i8 %49 to i32
  %51 = load ptr, ptr %9, align 8, !tbaa !100
  %52 = getelementptr inbounds i16, ptr %51, i64 1
  %53 = load i16, ptr %52, align 2, !tbaa !102
  %54 = sext i16 %53 to i32
  %55 = mul nsw i32 %50, %54
  %56 = load ptr, ptr %6, align 8, !tbaa !66
  %57 = load i32, ptr %56, align 4, !tbaa !24
  %58 = add nsw i32 %57, %55
  store i32 %58, ptr %56, align 4, !tbaa !24
  %59 = load ptr, ptr %8, align 8, !tbaa !99
  %60 = getelementptr inbounds ptr, ptr %59, i64 1
  %61 = load ptr, ptr %60, align 8, !tbaa !88
  %62 = getelementptr inbounds nuw i8, ptr %61, i32 1
  store ptr %62, ptr %60, align 8, !tbaa !88
  %63 = load i8, ptr %61, align 1, !tbaa !91
  %64 = zext i8 %63 to i32
  %65 = load ptr, ptr %9, align 8, !tbaa !100
  %66 = getelementptr inbounds i16, ptr %65, i64 1
  %67 = load i16, ptr %66, align 2, !tbaa !102
  %68 = sext i16 %67 to i32
  %69 = mul nsw i32 %64, %68
  %70 = load ptr, ptr %6, align 8, !tbaa !66
  %71 = load i32, ptr %70, align 4, !tbaa !24
  %72 = add nsw i32 %71, %69
  store i32 %72, ptr %70, align 4, !tbaa !24
  %73 = load ptr, ptr %7, align 8, !tbaa !99
  %74 = getelementptr inbounds ptr, ptr %73, i64 2
  %75 = load ptr, ptr %74, align 8, !tbaa !88
  %76 = getelementptr inbounds nuw i8, ptr %75, i32 1
  store ptr %76, ptr %74, align 8, !tbaa !88
  %77 = load i8, ptr %75, align 1, !tbaa !91
  %78 = zext i8 %77 to i32
  %79 = load ptr, ptr %9, align 8, !tbaa !100
  %80 = getelementptr inbounds i16, ptr %79, i64 2
  %81 = load i16, ptr %80, align 2, !tbaa !102
  %82 = sext i16 %81 to i32
  %83 = mul nsw i32 %78, %82
  %84 = load ptr, ptr %6, align 8, !tbaa !66
  %85 = load i32, ptr %84, align 4, !tbaa !24
  %86 = add nsw i32 %85, %83
  store i32 %86, ptr %84, align 4, !tbaa !24
  %87 = load ptr, ptr %8, align 8, !tbaa !99
  %88 = getelementptr inbounds ptr, ptr %87, i64 2
  %89 = load ptr, ptr %88, align 8, !tbaa !88
  %90 = getelementptr inbounds nuw i8, ptr %89, i32 1
  store ptr %90, ptr %88, align 8, !tbaa !88
  %91 = load i8, ptr %89, align 1, !tbaa !91
  %92 = zext i8 %91 to i32
  %93 = load ptr, ptr %9, align 8, !tbaa !100
  %94 = getelementptr inbounds i16, ptr %93, i64 2
  %95 = load i16, ptr %94, align 2, !tbaa !102
  %96 = sext i16 %95 to i32
  %97 = mul nsw i32 %92, %96
  %98 = load ptr, ptr %6, align 8, !tbaa !66
  %99 = load i32, ptr %98, align 4, !tbaa !24
  %100 = add nsw i32 %99, %97
  store i32 %100, ptr %98, align 4, !tbaa !24
  %101 = load ptr, ptr %7, align 8, !tbaa !99
  %102 = getelementptr inbounds ptr, ptr %101, i64 3
  %103 = load ptr, ptr %102, align 8, !tbaa !88
  %104 = getelementptr inbounds nuw i8, ptr %103, i32 1
  store ptr %104, ptr %102, align 8, !tbaa !88
  %105 = load i8, ptr %103, align 1, !tbaa !91
  %106 = zext i8 %105 to i32
  %107 = load ptr, ptr %9, align 8, !tbaa !100
  %108 = getelementptr inbounds i16, ptr %107, i64 3
  %109 = load i16, ptr %108, align 2, !tbaa !102
  %110 = sext i16 %109 to i32
  %111 = mul nsw i32 %106, %110
  %112 = load ptr, ptr %6, align 8, !tbaa !66
  %113 = load i32, ptr %112, align 4, !tbaa !24
  %114 = add nsw i32 %113, %111
  store i32 %114, ptr %112, align 4, !tbaa !24
  %115 = load ptr, ptr %8, align 8, !tbaa !99
  %116 = getelementptr inbounds ptr, ptr %115, i64 3
  %117 = load ptr, ptr %116, align 8, !tbaa !88
  %118 = getelementptr inbounds nuw i8, ptr %117, i32 1
  store ptr %118, ptr %116, align 8, !tbaa !88
  %119 = load i8, ptr %117, align 1, !tbaa !91
  %120 = zext i8 %119 to i32
  %121 = load ptr, ptr %9, align 8, !tbaa !100
  %122 = getelementptr inbounds i16, ptr %121, i64 3
  %123 = load i16, ptr %122, align 2, !tbaa !102
  %124 = sext i16 %123 to i32
  %125 = mul nsw i32 %120, %124
  %126 = load ptr, ptr %6, align 8, !tbaa !66
  %127 = load i32, ptr %126, align 4, !tbaa !24
  %128 = add nsw i32 %127, %125
  store i32 %128, ptr %126, align 4, !tbaa !24
  %129 = load ptr, ptr %7, align 8, !tbaa !99
  %130 = getelementptr inbounds ptr, ptr %129, i64 4
  %131 = load ptr, ptr %130, align 8, !tbaa !88
  %132 = getelementptr inbounds nuw i8, ptr %131, i32 1
  store ptr %132, ptr %130, align 8, !tbaa !88
  %133 = load i8, ptr %131, align 1, !tbaa !91
  %134 = zext i8 %133 to i32
  %135 = load ptr, ptr %9, align 8, !tbaa !100
  %136 = getelementptr inbounds i16, ptr %135, i64 4
  %137 = load i16, ptr %136, align 2, !tbaa !102
  %138 = sext i16 %137 to i32
  %139 = mul nsw i32 %134, %138
  %140 = load ptr, ptr %6, align 8, !tbaa !66
  %141 = load i32, ptr %140, align 4, !tbaa !24
  %142 = add nsw i32 %141, %139
  store i32 %142, ptr %140, align 4, !tbaa !24
  %143 = load ptr, ptr %8, align 8, !tbaa !99
  %144 = getelementptr inbounds ptr, ptr %143, i64 4
  %145 = load ptr, ptr %144, align 8, !tbaa !88
  %146 = getelementptr inbounds nuw i8, ptr %145, i32 1
  store ptr %146, ptr %144, align 8, !tbaa !88
  %147 = load i8, ptr %145, align 1, !tbaa !91
  %148 = zext i8 %147 to i32
  %149 = load ptr, ptr %9, align 8, !tbaa !100
  %150 = getelementptr inbounds i16, ptr %149, i64 4
  %151 = load i16, ptr %150, align 2, !tbaa !102
  %152 = sext i16 %151 to i32
  %153 = mul nsw i32 %148, %152
  %154 = load ptr, ptr %6, align 8, !tbaa !66
  %155 = getelementptr inbounds nuw i32, ptr %154, i32 1
  store ptr %155, ptr %6, align 8, !tbaa !66
  %156 = load i32, ptr %154, align 4, !tbaa !24
  %157 = add nsw i32 %156, %153
  store i32 %157, ptr %154, align 4, !tbaa !24
  br label %158

158:                                              ; preds = %16
  %159 = load i32, ptr %11, align 4, !tbaa !24
  %160 = add nsw i32 %159, 1
  store i32 %160, ptr %11, align 4, !tbaa !24
  br label %12, !llvm.loop !107

161:                                              ; preds = %12
  call void @llvm.lifetime.end.p0(i64 4, ptr %11) #10
  ret void
}