; Function Attrs: nofree norecurse nosync nounwind memory(read, argmem: readwrite, inaccessiblemem: none) uwtable
define internal void @filter_complex_high(ptr noundef captures(none) %0, ptr noundef captures(none) %1, ptr noundef captures(none) %2, ptr noundef readonly captures(none) %3, i32 noundef %4) #6 {
  %6 = icmp sgt i32 %4, 0
  br i1 %6, label %.lr.ph, label %._crit_edge

.lr.ph:                                           ; preds = %5
  %7 = load i16, ptr %3, align 2, !tbaa !87
  %8 = sext i16 %7 to i32
  %9 = getelementptr inbounds nuw i8, ptr %1, i64 8
  %10 = getelementptr inbounds nuw i8, ptr %3, i64 2
  %11 = load i16, ptr %10, align 2, !tbaa !87
  %12 = sext i16 %11 to i32
  %13 = getelementptr inbounds nuw i8, ptr %2, i64 8
  %14 = getelementptr inbounds nuw i8, ptr %1, i64 16
  %15 = getelementptr inbounds nuw i8, ptr %3, i64 4
  %16 = load i16, ptr %15, align 2, !tbaa !87
  %17 = sext i16 %16 to i32
  %18 = getelementptr inbounds nuw i8, ptr %2, i64 16
  %19 = getelementptr inbounds nuw i8, ptr %1, i64 24
  %20 = getelementptr inbounds nuw i8, ptr %3, i64 6
  %21 = load i16, ptr %20, align 2, !tbaa !87
  %22 = sext i16 %21 to i32
  %23 = getelementptr inbounds nuw i8, ptr %2, i64 24
  %24 = getelementptr inbounds nuw i8, ptr %1, i64 32
  %25 = getelementptr inbounds nuw i8, ptr %3, i64 8
  %26 = load i16, ptr %25, align 2, !tbaa !87
  %27 = sext i16 %26 to i32
  %28 = getelementptr inbounds nuw i8, ptr %2, i64 32
  br label %29

29:                                               ; preds = %.lr.ph, %29
  %.034 = phi i32 [ 0, %.lr.ph ], [ %92, %29 ]
  %.03233 = phi ptr [ %0, %.lr.ph ], [ %90, %29 ]
  %30 = load ptr, ptr %1, align 8, !tbaa !78
  %31 = getelementptr inbounds nuw i8, ptr %30, i64 1
  store ptr %31, ptr %1, align 8, !tbaa !78
  %32 = load i8, ptr %30, align 1, !tbaa !81
  %33 = zext i8 %32 to i32
  %34 = mul nsw i32 %8, %33
  %35 = load i32, ptr %.03233, align 4, !tbaa !58
  %36 = add nsw i32 %34, %35
  store i32 %36, ptr %.03233, align 4, !tbaa !58
  %37 = load ptr, ptr %2, align 8, !tbaa !78
  %38 = getelementptr inbounds nuw i8, ptr %37, i64 1
  store ptr %38, ptr %2, align 8, !tbaa !78
  %39 = load i8, ptr %37, align 1, !tbaa !81
  %40 = zext i8 %39 to i32
  %41 = mul nsw i32 %40, %8
  %42 = add nsw i32 %41, %36
  store i32 %42, ptr %.03233, align 4, !tbaa !58
  %43 = load ptr, ptr %9, align 8, !tbaa !78
  %44 = getelementptr inbounds nuw i8, ptr %43, i64 1
  store ptr %44, ptr %9, align 8, !tbaa !78
  %45 = load i8, ptr %43, align 1, !tbaa !81
  %46 = zext i8 %45 to i32
  %47 = mul nsw i32 %12, %46
  %48 = add nsw i32 %47, %42
  store i32 %48, ptr %.03233, align 4, !tbaa !58
  %49 = load ptr, ptr %13, align 8, !tbaa !78
  %50 = getelementptr inbounds nuw i8, ptr %49, i64 1
  store ptr %50, ptr %13, align 8, !tbaa !78
  %51 = load i8, ptr %49, align 1, !tbaa !81
  %52 = zext i8 %51 to i32
  %53 = mul nsw i32 %52, %12
  %54 = add nsw i32 %53, %48
  store i32 %54, ptr %.03233, align 4, !tbaa !58
  %55 = load ptr, ptr %14, align 8, !tbaa !78
  %56 = getelementptr inbounds nuw i8, ptr %55, i64 1
  store ptr %56, ptr %14, align 8, !tbaa !78
  %57 = load i8, ptr %55, align 1, !tbaa !81
  %58 = zext i8 %57 to i32
  %59 = mul nsw i32 %17, %58
  %60 = add nsw i32 %59, %54
  store i32 %60, ptr %.03233, align 4, !tbaa !58
  %61 = load ptr, ptr %18, align 8, !tbaa !78
  %62 = getelementptr inbounds nuw i8, ptr %61, i64 1
  store ptr %62, ptr %18, align 8, !tbaa !78
  %63 = load i8, ptr %61, align 1, !tbaa !81
  %64 = zext i8 %63 to i32
  %65 = mul nsw i32 %64, %17
  %66 = add nsw i32 %65, %60
  store i32 %66, ptr %.03233, align 4, !tbaa !58
  %67 = load ptr, ptr %19, align 8, !tbaa !78
  %68 = getelementptr inbounds nuw i8, ptr %67, i64 1
  store ptr %68, ptr %19, align 8, !tbaa !78
  %69 = load i8, ptr %67, align 1, !tbaa !81
  %70 = zext i8 %69 to i32
  %71 = mul nsw i32 %22, %70
  %72 = add nsw i32 %71, %66
  store i32 %72, ptr %.03233, align 4, !tbaa !58
  %73 = load ptr, ptr %23, align 8, !tbaa !78
  %74 = getelementptr inbounds nuw i8, ptr %73, i64 1
  store ptr %74, ptr %23, align 8, !tbaa !78
  %75 = load i8, ptr %73, align 1, !tbaa !81
  %76 = zext i8 %75 to i32
  %77 = mul nsw i32 %76, %22
  %78 = add nsw i32 %77, %72
  store i32 %78, ptr %.03233, align 4, !tbaa !58
  %79 = load ptr, ptr %24, align 8, !tbaa !78
  %80 = getelementptr inbounds nuw i8, ptr %79, i64 1
  store ptr %80, ptr %24, align 8, !tbaa !78
  %81 = load i8, ptr %79, align 1, !tbaa !81
  %82 = zext i8 %81 to i32
  %83 = mul nsw i32 %27, %82
  %84 = add nsw i32 %83, %78
  store i32 %84, ptr %.03233, align 4, !tbaa !58
  %85 = load ptr, ptr %28, align 8, !tbaa !78
  %86 = getelementptr inbounds nuw i8, ptr %85, i64 1
  store ptr %86, ptr %28, align 8, !tbaa !78
  %87 = load i8, ptr %85, align 1, !tbaa !81
  %88 = zext i8 %87 to i32
  %89 = mul nsw i32 %88, %27
  %90 = getelementptr inbounds nuw i8, ptr %.03233, i64 4
  %91 = add nsw i32 %89, %84
  store i32 %91, ptr %.03233, align 4, !tbaa !58
  %92 = add nuw nsw i32 %.034, 1
  %exitcond.not = icmp eq i32 %92, %4
  br i1 %exitcond.not, label %._crit_edge, label %29, !llvm.loop !92

._crit_edge:                                      ; preds = %29, %5
  ret void
}